ccopy_reg
_reconstructor
p1
(csnapconnect.AutoPickler
AutoSaver
p2
c__builtin__
object
p3
NtRp4
(dp5
S'_auto_save_file_path'
p6
S'C:\\Users\\Bento007\\git\\SJSU-Superway-2014\\nvparams.dat'
p7
sS'params'
p8
(dp9
I2
S'\x00\x1c,\x00\x00\x00\x00\x01'
p10
sI3
I0
sI4
I0
sI5
I1
sI6
I1
sI11
I0
sI50
I0
sI19
I8
sI20
I60000
sI21
I1000
sI22
I5000
sI23
I5000
sI24
I10000
sI25
I3
sI26
I500
sI27
I2
sI28
I5
sI29
I1
sI30
I0
sI52
I0
ssS'version'
p11
I1
sb.